; Function Attrs: mustprogress nounwind uwtable
define dso_local noundef zeroext range(i8 0, 4) i8 @_ZN4llvm17TypeBasedAAResult13getModRefInfoEPKNS_8CallBaseES3_RNS_11AAQueryInfoE(ptr nocapture noundef nonnull readnone align 1 dereferenceable(1) %0, ptr noundef %1, ptr noundef %2, ptr nocapture noundef nonnull readnone align 8 dereferenceable(498) %3) local_unnamed_addr #0 align 2 {
  %5 = load i8, ptr getelementptr inbounds (i8, ptr @_ZL10EnableTBAA, i64 128), align 8
  %6 = trunc i8 %5 to i1
  br i1 %6, label %7, label %19

7:                                                ; preds = %4
  %8 = getelementptr inbounds nuw i8, ptr %1, i64 4
  %9 = load i32, ptr %8, align 4
  %10 = and i32 %9, 536870912
  %.not.i.i = icmp eq i32 %10, 0
  br i1 %.not.i.i, label %_ZNK4llvm11Instruction11getMetadataEj.exit.thread, label %_ZNK4llvm11Instruction11getMetadataEj.exit

_ZNK4llvm11Instruction11getMetadataEj.exit:       ; preds = %7
  %11 = tail call noundef ptr @_ZNK4llvm5Value15getMetadataImplEj(ptr noundef nonnull align 8 dereferenceable(24) %1, i32 noundef 1) #20
  %.not = icmp eq ptr %11, null
  br i1 %.not, label %_ZNK4llvm11Instruction11getMetadataEj.exit.thread, label %12

12:                                               ; preds = %_ZNK4llvm11Instruction11getMetadataEj.exit
  %13 = getelementptr inbounds nuw i8, ptr %2, i64 4
  %14 = load i32, ptr %13, align 4
  %15 = and i32 %14, 536870912
  %.not.i.i10 = icmp eq i32 %15, 0
  br i1 %.not.i.i10, label %_ZNK4llvm11Instruction11getMetadataEj.exit.thread, label %_ZNK4llvm11Instruction11getMetadataEj.exit12

_ZNK4llvm11Instruction11getMetadataEj.exit12:     ; preds = %12
  %16 = tail call noundef ptr @_ZNK4llvm5Value15getMetadataImplEj(ptr noundef nonnull align 8 dereferenceable(24) %2, i32 noundef 1) #20
  %.not9 = icmp eq ptr %16, null
  br i1 %.not9, label %_ZNK4llvm11Instruction11getMetadataEj.exit.thread, label %17

17:                                               ; preds = %_ZNK4llvm11Instruction11getMetadataEj.exit12
  %18 = tail call fastcc noundef zeroext i1 @_ZL15matchAccessTagsPKN4llvm6MDNodeES2_PS2_(ptr noundef nonnull %11, ptr noundef nonnull %16, ptr noundef null)
  br i1 %18, label %_ZNK4llvm11Instruction11getMetadataEj.exit.thread, label %19

_ZNK4llvm11Instruction11getMetadataEj.exit.thread: ; preds = %12, %7, %_ZNK4llvm11Instruction11getMetadataEj.exit12, %17, %_ZNK4llvm11Instruction11getMetadataEj.exit
  br label %19

19:                                               ; preds = %17, %4, %_ZNK4llvm11Instruction11getMetadataEj.exit.thread
  %.0 = phi i8 [ 3, %_ZNK4llvm11Instruction11getMetadataEj.exit.thread ], [ 3, %4 ], [ 0, %17 ]
  ret i8 %.0
}